ARM GAS  C:\Users\jdrd3\AppData\Local\Temp\ccvG37Rc.s 			page 1


   1              		.syntax unified
   2              		.cpu cortex-m3
   3              		.fpu softvfp
   4              		.eabi_attribute 20, 1
   5              		.eabi_attribute 21, 1
   6              		.eabi_attribute 23, 3
   7              		.eabi_attribute 24, 1
   8              		.eabi_attribute 25, 1
   9              		.eabi_attribute 26, 1
  10              		.eabi_attribute 30, 1
  11              		.eabi_attribute 34, 1
  12              		.eabi_attribute 18, 4
  13              		.thumb
  14              		.syntax unified
  15              		.file	"main.c"
  16              		.text
  17              	.Ltext0:
  18              		.cfi_sections	.debug_frame
  19              		.section	.text.Avanzar,"ax",%progbits
  20              		.align	2
  21              		.global	Avanzar
  22              		.thumb
  23              		.thumb_func
  24              		.type	Avanzar, %function
  25              	Avanzar:
  26              	.LFB63:
  27              		.file 1 "main.c"
   1:main.c        **** /* ========================================
   2:main.c        ****  *
   3:main.c        ****  * Copyright YOUR COMPANY, THE YEAR
   4:main.c        ****  * All Rights Reserved
   5:main.c        ****  * UNPUBLISHED, LICENSED SOFTWARE.
   6:main.c        ****  *
   7:main.c        ****  * CONFIDENTIAL AND PROPRIETARY INFORMATION
   8:main.c        ****  * WHICH IS THE PROPERTY OF your company.
   9:main.c        ****  *
  10:main.c        ****  * ========================================
  11:main.c        **** */
  12:main.c        **** #include "project.h"
  13:main.c        **** 
  14:main.c        **** int Contador=0;
  15:main.c        **** int time=0;
  16:main.c        **** int time1=0;
  17:main.c        **** float Distancia=100.0;
  18:main.c        **** 
  19:main.c        **** //------------------FUNCIONES -----------------------------
  20:main.c        **** 
  21:main.c        **** void Avanzar(){
  28              		.loc 1 21 0
  29              		.cfi_startproc
  30              		@ args = 0, pretend = 0, frame = 0
  31              		@ frame_needed = 0, uses_anonymous_args = 0
  32 0000 08B5     		push	{r3, lr}
  33              		.cfi_def_cfa_offset 8
  34              		.cfi_offset 3, -8
  35              		.cfi_offset 14, -4
  22:main.c        ****      STBY_Write(1);
ARM GAS  C:\Users\jdrd3\AppData\Local\Temp\ccvG37Rc.s 			page 2


  36              		.loc 1 22 0
  37 0002 0120     		movs	r0, #1
  38 0004 FFF7FEFF 		bl	STBY_Write
  39              	.LVL0:
  23:main.c        ****      PWM1_WriteCompare2(0);
  40              		.loc 1 23 0
  41 0008 0020     		movs	r0, #0
  42 000a FFF7FEFF 		bl	PWM1_WriteCompare2
  43              	.LVL1:
  24:main.c        ****      PWM2_WriteCompare2(0);
  44              		.loc 1 24 0
  45 000e 0020     		movs	r0, #0
  46 0010 FFF7FEFF 		bl	PWM2_WriteCompare2
  47              	.LVL2:
  25:main.c        ****     
  26:main.c        ****     
  27:main.c        ****      PWM1_WriteCompare1(90);
  48              		.loc 1 27 0
  49 0014 5A20     		movs	r0, #90
  50 0016 FFF7FEFF 		bl	PWM1_WriteCompare1
  51              	.LVL3:
  28:main.c        ****      PWM2_WriteCompare1(90);
  52              		.loc 1 28 0
  53 001a 5A20     		movs	r0, #90
  54 001c FFF7FEFF 		bl	PWM2_WriteCompare1
  55              	.LVL4:
  56 0020 08BD     		pop	{r3, pc}
  57              		.cfi_endproc
  58              	.LFE63:
  59              		.size	Avanzar, .-Avanzar
  60 0022 00BF     		.section	.text.Retroceder,"ax",%progbits
  61              		.align	2
  62              		.global	Retroceder
  63              		.thumb
  64              		.thumb_func
  65              		.type	Retroceder, %function
  66              	Retroceder:
  67              	.LFB64:
  29:main.c        **** 
  30:main.c        **** }
  31:main.c        **** void Retroceder (){
  68              		.loc 1 31 0
  69              		.cfi_startproc
  70              		@ args = 0, pretend = 0, frame = 0
  71              		@ frame_needed = 0, uses_anonymous_args = 0
  72 0000 08B5     		push	{r3, lr}
  73              		.cfi_def_cfa_offset 8
  74              		.cfi_offset 3, -8
  75              		.cfi_offset 14, -4
  32:main.c        ****     
  33:main.c        ****      STBY_Write(1);
  76              		.loc 1 33 0
  77 0002 0120     		movs	r0, #1
  78 0004 FFF7FEFF 		bl	STBY_Write
  79              	.LVL5:
  34:main.c        ****      PWM1_WriteCompare1(0);
  80              		.loc 1 34 0
ARM GAS  C:\Users\jdrd3\AppData\Local\Temp\ccvG37Rc.s 			page 3


  81 0008 0020     		movs	r0, #0
  82 000a FFF7FEFF 		bl	PWM1_WriteCompare1
  83              	.LVL6:
  35:main.c        ****      PWM2_WriteCompare1(0);
  84              		.loc 1 35 0
  85 000e 0020     		movs	r0, #0
  86 0010 FFF7FEFF 		bl	PWM2_WriteCompare1
  87              	.LVL7:
  36:main.c        ****     
  37:main.c        ****      PWM1_WriteCompare2(90);
  88              		.loc 1 37 0
  89 0014 5A20     		movs	r0, #90
  90 0016 FFF7FEFF 		bl	PWM1_WriteCompare2
  91              	.LVL8:
  38:main.c        ****      PWM2_WriteCompare2(90);
  92              		.loc 1 38 0
  93 001a 5A20     		movs	r0, #90
  94 001c FFF7FEFF 		bl	PWM2_WriteCompare2
  95              	.LVL9:
  96 0020 08BD     		pop	{r3, pc}
  97              		.cfi_endproc
  98              	.LFE64:
  99              		.size	Retroceder, .-Retroceder
 100 0022 00BF     		.section	.text.GirarD,"ax",%progbits
 101              		.align	2
 102              		.global	GirarD
 103              		.thumb
 104              		.thumb_func
 105              		.type	GirarD, %function
 106              	GirarD:
 107              	.LFB65:
  39:main.c        **** 
  40:main.c        **** }
  41:main.c        **** 
  42:main.c        **** void GirarD(){
 108              		.loc 1 42 0
 109              		.cfi_startproc
 110              		@ args = 0, pretend = 0, frame = 0
 111              		@ frame_needed = 0, uses_anonymous_args = 0
 112 0000 08B5     		push	{r3, lr}
 113              		.cfi_def_cfa_offset 8
 114              		.cfi_offset 3, -8
 115              		.cfi_offset 14, -4
  43:main.c        ****     
  44:main.c        ****      STBY_Write(1);   
 116              		.loc 1 44 0
 117 0002 0120     		movs	r0, #1
 118 0004 FFF7FEFF 		bl	STBY_Write
 119              	.LVL10:
  45:main.c        ****      PWM1_WriteCompare1(60);
 120              		.loc 1 45 0
 121 0008 3C20     		movs	r0, #60
 122 000a FFF7FEFF 		bl	PWM1_WriteCompare1
 123              	.LVL11:
  46:main.c        ****      PWM2_WriteCompare2(0);
 124              		.loc 1 46 0
 125 000e 0020     		movs	r0, #0
ARM GAS  C:\Users\jdrd3\AppData\Local\Temp\ccvG37Rc.s 			page 4


 126 0010 FFF7FEFF 		bl	PWM2_WriteCompare2
 127              	.LVL12:
  47:main.c        ****     
  48:main.c        ****      PWM1_WriteCompare2(0);
 128              		.loc 1 48 0
 129 0014 0020     		movs	r0, #0
 130 0016 FFF7FEFF 		bl	PWM1_WriteCompare2
 131              	.LVL13:
  49:main.c        ****      PWM2_WriteCompare1(0);
 132              		.loc 1 49 0
 133 001a 0020     		movs	r0, #0
 134 001c FFF7FEFF 		bl	PWM2_WriteCompare1
 135              	.LVL14:
 136 0020 08BD     		pop	{r3, pc}
 137              		.cfi_endproc
 138              	.LFE65:
 139              		.size	GirarD, .-GirarD
 140 0022 00BF     		.section	.text.GirarI,"ax",%progbits
 141              		.align	2
 142              		.global	GirarI
 143              		.thumb
 144              		.thumb_func
 145              		.type	GirarI, %function
 146              	GirarI:
 147              	.LFB66:
  50:main.c        **** 
  51:main.c        **** 
  52:main.c        **** }
  53:main.c        **** 
  54:main.c        **** 
  55:main.c        **** void GirarI (){
 148              		.loc 1 55 0
 149              		.cfi_startproc
 150              		@ args = 0, pretend = 0, frame = 0
 151              		@ frame_needed = 0, uses_anonymous_args = 0
 152 0000 08B5     		push	{r3, lr}
 153              		.cfi_def_cfa_offset 8
 154              		.cfi_offset 3, -8
 155              		.cfi_offset 14, -4
  56:main.c        ****      
  57:main.c        ****     STBY_Write(1);
 156              		.loc 1 57 0
 157 0002 0120     		movs	r0, #1
 158 0004 FFF7FEFF 		bl	STBY_Write
 159              	.LVL15:
  58:main.c        ****      PWM1_WriteCompare1(0);
 160              		.loc 1 58 0
 161 0008 0020     		movs	r0, #0
 162 000a FFF7FEFF 		bl	PWM1_WriteCompare1
 163              	.LVL16:
  59:main.c        ****      PWM2_WriteCompare2(0);
 164              		.loc 1 59 0
 165 000e 0020     		movs	r0, #0
 166 0010 FFF7FEFF 		bl	PWM2_WriteCompare2
 167              	.LVL17:
  60:main.c        ****     
  61:main.c        ****      PWM1_WriteCompare2(0);
ARM GAS  C:\Users\jdrd3\AppData\Local\Temp\ccvG37Rc.s 			page 5


 168              		.loc 1 61 0
 169 0014 0020     		movs	r0, #0
 170 0016 FFF7FEFF 		bl	PWM1_WriteCompare2
 171              	.LVL18:
  62:main.c        ****      PWM2_WriteCompare1(60);
 172              		.loc 1 62 0
 173 001a 3C20     		movs	r0, #60
 174 001c FFF7FEFF 		bl	PWM2_WriteCompare1
 175              	.LVL19:
 176 0020 08BD     		pop	{r3, pc}
 177              		.cfi_endproc
 178              	.LFE66:
 179              		.size	GirarI, .-GirarI
 180 0022 00BF     		.section	.text.Stop,"ax",%progbits
 181              		.align	2
 182              		.global	Stop
 183              		.thumb
 184              		.thumb_func
 185              		.type	Stop, %function
 186              	Stop:
 187              	.LFB67:
  63:main.c        **** 
  64:main.c        **** }
  65:main.c        **** void Stop(){
 188              		.loc 1 65 0
 189              		.cfi_startproc
 190              		@ args = 0, pretend = 0, frame = 0
 191              		@ frame_needed = 0, uses_anonymous_args = 0
 192 0000 08B5     		push	{r3, lr}
 193              		.cfi_def_cfa_offset 8
 194              		.cfi_offset 3, -8
 195              		.cfi_offset 14, -4
  66:main.c        ****     
  67:main.c        ****     STBY_Write(0);
 196              		.loc 1 67 0
 197 0002 0020     		movs	r0, #0
 198 0004 FFF7FEFF 		bl	STBY_Write
 199              	.LVL20:
 200 0008 08BD     		pop	{r3, pc}
 201              		.cfi_endproc
 202              	.LFE67:
 203              		.size	Stop, .-Stop
 204 000a 00BF     		.section	.text.Sensor_1,"ax",%progbits
 205              		.align	2
 206              		.global	Sensor_1
 207              		.thumb
 208              		.thumb_func
 209              		.type	Sensor_1, %function
 210              	Sensor_1:
 211              	.LFB68:
  68:main.c        **** }
  69:main.c        **** 
  70:main.c        **** //---------------------------------------------------------
  71:main.c        **** //--------------INTERRUPCIONES PISO-----------------------
  72:main.c        **** 
  73:main.c        **** CY_ISR(Sensor_1){
 212              		.loc 1 73 0
ARM GAS  C:\Users\jdrd3\AppData\Local\Temp\ccvG37Rc.s 			page 6


 213              		.cfi_startproc
 214              		@ args = 0, pretend = 0, frame = 0
 215              		@ frame_needed = 0, uses_anonymous_args = 0
 216 0000 08B5     		push	{r3, lr}
 217              		.cfi_def_cfa_offset 8
 218              		.cfi_offset 3, -8
 219              		.cfi_offset 14, -4
  74:main.c        ****     
  75:main.c        ****    Retroceder();
 220              		.loc 1 75 0
 221 0002 FFF7FEFF 		bl	Retroceder
 222              	.LVL21:
  76:main.c        ****    CyDelay(200);
 223              		.loc 1 76 0
 224 0006 C820     		movs	r0, #200
 225 0008 FFF7FEFF 		bl	CyDelay
 226              	.LVL22:
  77:main.c        ****    S1_ClearInterrupt();
 227              		.loc 1 77 0
 228 000c FFF7FEFF 		bl	S1_ClearInterrupt
 229              	.LVL23:
 230 0010 08BD     		pop	{r3, pc}
 231              		.cfi_endproc
 232              	.LFE68:
 233              		.size	Sensor_1, .-Sensor_1
 234 0012 00BF     		.section	.text.Sensor_2,"ax",%progbits
 235              		.align	2
 236              		.global	Sensor_2
 237              		.thumb
 238              		.thumb_func
 239              		.type	Sensor_2, %function
 240              	Sensor_2:
 241              	.LFB69:
  78:main.c        **** }
  79:main.c        **** CY_ISR(Sensor_2){
 242              		.loc 1 79 0
 243              		.cfi_startproc
 244              		@ args = 0, pretend = 0, frame = 0
 245              		@ frame_needed = 0, uses_anonymous_args = 0
 246 0000 08B5     		push	{r3, lr}
 247              		.cfi_def_cfa_offset 8
 248              		.cfi_offset 3, -8
 249              		.cfi_offset 14, -4
  80:main.c        ****     
  81:main.c        ****    Retroceder();
 250              		.loc 1 81 0
 251 0002 FFF7FEFF 		bl	Retroceder
 252              	.LVL24:
  82:main.c        ****    CyDelay(200);
 253              		.loc 1 82 0
 254 0006 C820     		movs	r0, #200
 255 0008 FFF7FEFF 		bl	CyDelay
 256              	.LVL25:
  83:main.c        ****    S2_ClearInterrupt();
 257              		.loc 1 83 0
 258 000c FFF7FEFF 		bl	S2_ClearInterrupt
 259              	.LVL26:
ARM GAS  C:\Users\jdrd3\AppData\Local\Temp\ccvG37Rc.s 			page 7


 260 0010 08BD     		pop	{r3, pc}
 261              		.cfi_endproc
 262              	.LFE69:
 263              		.size	Sensor_2, .-Sensor_2
 264              		.global	__aeabi_i2d
 265              		.global	__aeabi_ddiv
 266              		.global	__aeabi_d2f
 267              		.global	__aeabi_fcmplt
 268 0012 00BF     		.section	.text.main,"ax",%progbits
 269              		.align	2
 270              		.global	main
 271              		.thumb
 272              		.thumb_func
 273              		.type	main, %function
 274              	main:
 275              	.LFB70:
  84:main.c        **** }
  85:main.c        **** //-----------------------------------------------------
  86:main.c        **** 
  87:main.c        **** int main(void)
  88:main.c        **** {
 276              		.loc 1 88 0
 277              		.cfi_startproc
 278              		@ Volatile: function does not return.
 279              		@ args = 0, pretend = 0, frame = 0
 280              		@ frame_needed = 0, uses_anonymous_args = 0
 281 0000 08B5     		push	{r3, lr}
 282              		.cfi_def_cfa_offset 8
 283              		.cfi_offset 3, -8
 284              		.cfi_offset 14, -4
  89:main.c        ****     PWM1_Start();
 285              		.loc 1 89 0
 286 0002 FFF7FEFF 		bl	PWM1_Start
 287              	.LVL27:
  90:main.c        ****     PWM2_Start();
 288              		.loc 1 90 0
 289 0006 FFF7FEFF 		bl	PWM2_Start
 290              	.LVL28:
  91:main.c        ****     Timer_Start();
 291              		.loc 1 91 0
 292 000a FFF7FEFF 		bl	Timer_Start
 293              	.LVL29:
  92:main.c        ****     
  93:main.c        ****     CyGlobalIntEnable; /* Enable global interrupts. */
 294              		.loc 1 93 0
 295              		.syntax unified
 296              	@ 93 "main.c" 1
 297 000e 62B6     		CPSIE   i
 298              	@ 0 "" 2
  94:main.c        **** 
  95:main.c        ****    /* INFR1_StartEx(Sensor_1);
  96:main.c        ****     INFR1_StartEx(Sensor_2);  */
  97:main.c        ****    
  98:main.c        ****     CyDelay(5000);
 299              		.loc 1 98 0
 300              		.thumb
 301              		.syntax unified
ARM GAS  C:\Users\jdrd3\AppData\Local\Temp\ccvG37Rc.s 			page 8


 302 0010 41F28830 		movw	r0, #5000
 303 0014 FFF7FEFF 		bl	CyDelay
 304              	.LVL30:
 305              	.L20:
  99:main.c        ****     for(;;)
 100:main.c        ****     {
 101:main.c        ****       
 102:main.c        ****         
 103:main.c        ****         //---------------------LECTURA ULTRA SONIDO-------------------  
 104:main.c        ****        
 105:main.c        ****         do{  
 106:main.c        ****         LED2_Write(1);
 306              		.loc 1 106 0
 307 0018 0120     		movs	r0, #1
 308 001a FFF7FEFF 		bl	LED2_Write
 309              	.LVL31:
 107:main.c        ****         Avanzar();
 310              		.loc 1 107 0
 311 001e FFF7FEFF 		bl	Avanzar
 312              	.LVL32:
 108:main.c        ****         while(Ekko_Read()==0){      //Generacion de pulso en trigger
 313              		.loc 1 108 0
 314 0022 0BE0     		b	.L17
 315              	.L18:
 109:main.c        ****             Control_Write(1);
 316              		.loc 1 109 0
 317 0024 0120     		movs	r0, #1
 318 0026 FFF7FEFF 		bl	Control_Write
 319              	.LVL33:
 110:main.c        ****             CyDelay(10u);
 320              		.loc 1 110 0
 321 002a 0A20     		movs	r0, #10
 322 002c FFF7FEFF 		bl	CyDelay
 323              	.LVL34:
 111:main.c        ****             Control_Write(0);
 324              		.loc 1 111 0
 325 0030 0020     		movs	r0, #0
 326 0032 FFF7FEFF 		bl	Control_Write
 327              	.LVL35:
 112:main.c        ****             CyDelay(1);             //Espera pulsos generados por el sensor
 328              		.loc 1 112 0
 329 0036 0120     		movs	r0, #1
 330 0038 FFF7FEFF 		bl	CyDelay
 331              	.LVL36:
 332              	.L17:
 108:main.c        ****             Control_Write(1);
 333              		.loc 1 108 0
 334 003c FFF7FEFF 		bl	Ekko_Read
 335              	.LVL37:
 336 0040 0028     		cmp	r0, #0
 337 0042 EFD0     		beq	.L18
 338              	.L19:
 113:main.c        ****          }
 114:main.c        ****         
 115:main.c        ****         while(Ekko_Read()==1){};
 339              		.loc 1 115 0 discriminator 1
 340 0044 FFF7FEFF 		bl	Ekko_Read
ARM GAS  C:\Users\jdrd3\AppData\Local\Temp\ccvG37Rc.s 			page 9


 341              	.LVL38:
 342 0048 0128     		cmp	r0, #1
 343 004a FBD0     		beq	.L19
 116:main.c        ****         Contador=65535-Timer_ReadCounter(); // timer cuenta descendentemente;
 344              		.loc 1 116 0
 345 004c FFF7FEFF 		bl	Timer_ReadCounter
 346              	.LVL39:
 347 0050 C0F57F40 		rsb	r0, r0, #65280
 348 0054 FF30     		adds	r0, r0, #255
 349 0056 3F4B     		ldr	r3, .L30
 350 0058 1860     		str	r0, [r3]
 117:main.c        ****         Distancia = Contador/58.0;          // Formula datasheet para pasar a "cm"
 351              		.loc 1 117 0
 352 005a FFF7FEFF 		bl	__aeabi_i2d
 353              	.LVL40:
 354 005e 0022     		movs	r2, #0
 355 0060 3D4B     		ldr	r3, .L30+4
 356 0062 FFF7FEFF 		bl	__aeabi_ddiv
 357              	.LVL41:
 358 0066 FFF7FEFF 		bl	__aeabi_d2f
 359              	.LVL42:
 360 006a 3C4B     		ldr	r3, .L30+8
 361 006c 1860     		str	r0, [r3]	@ float
 118:main.c        ****         }
 119:main.c        ****         while(Distancia<25.0);
 362              		.loc 1 119 0
 363 006e 3C49     		ldr	r1, .L30+12
 364 0070 FFF7FEFF 		bl	__aeabi_fcmplt
 365              	.LVL43:
 366 0074 0028     		cmp	r0, #0
 367 0076 CFD1     		bne	.L20
 120:main.c        ****         LED2_Write(0);
 368              		.loc 1 120 0
 369 0078 FFF7FEFF 		bl	LED2_Write
 370              	.LVL44:
 121:main.c        ****        //-------------------------------------------------------------------------
 122:main.c        ****        // --------------------------SENSOR PISO-----------------------------------
 123:main.c        ****         time=0;
 371              		.loc 1 123 0
 372 007c 0022     		movs	r2, #0
 373 007e 354B     		ldr	r3, .L30
 374 0080 5A60     		str	r2, [r3, #4]
 124:main.c        ****         Slinea_SetDriveMode(Slinea_DM_STRONG);
 375              		.loc 1 124 0
 376 0082 0C20     		movs	r0, #12
 377 0084 FFF7FEFF 		bl	Slinea_SetDriveMode
 378              	.LVL45:
 125:main.c        ****         Slinea_Write(1);
 379              		.loc 1 125 0
 380 0088 0120     		movs	r0, #1
 381 008a FFF7FEFF 		bl	Slinea_Write
 382              	.LVL46:
 126:main.c        ****         CyDelay(12u);
 383              		.loc 1 126 0
 384 008e 0C20     		movs	r0, #12
 385 0090 FFF7FEFF 		bl	CyDelay
 386              	.LVL47:
ARM GAS  C:\Users\jdrd3\AppData\Local\Temp\ccvG37Rc.s 			page 10


 127:main.c        ****         Slinea_SetDriveMode(Slinea_DM_DIG_HIZ);
 387              		.loc 1 127 0
 388 0094 0220     		movs	r0, #2
 389 0096 FFF7FEFF 		bl	Slinea_SetDriveMode
 390              	.LVL48:
 128:main.c        ****         while(Slinea_Read()){
 391              		.loc 1 128 0
 392 009a 03E0     		b	.L21
 393              	.L22:
 129:main.c        ****            time=time+1;
 394              		.loc 1 129 0
 395 009c 2D4A     		ldr	r2, .L30
 396 009e 5368     		ldr	r3, [r2, #4]
 397 00a0 0133     		adds	r3, r3, #1
 398 00a2 5360     		str	r3, [r2, #4]
 399              	.L21:
 128:main.c        ****         while(Slinea_Read()){
 400              		.loc 1 128 0
 401 00a4 FFF7FEFF 		bl	Slinea_Read
 402              	.LVL49:
 403 00a8 0028     		cmp	r0, #0
 404 00aa F7D1     		bne	.L22
 130:main.c        ****         }
 131:main.c        ****             LED_Write(0);
 405              		.loc 1 131 0
 406 00ac FFF7FEFF 		bl	LED_Write
 407              	.LVL50:
 132:main.c        ****         if(time<2500){
 408              		.loc 1 132 0
 409 00b0 284B     		ldr	r3, .L30
 410 00b2 5A68     		ldr	r2, [r3, #4]
 411 00b4 40F6C313 		movw	r3, #2499
 412 00b8 9A42     		cmp	r2, r3
 413 00ba 0FDC     		bgt	.L23
 133:main.c        ****             LED_Write(1);
 414              		.loc 1 133 0
 415 00bc 0120     		movs	r0, #1
 416 00be FFF7FEFF 		bl	LED_Write
 417              	.LVL51:
 134:main.c        ****             Retroceder(); // BLANCO
 418              		.loc 1 134 0
 419 00c2 FFF7FEFF 		bl	Retroceder
 420              	.LVL52:
 135:main.c        ****             CyDelay(700);
 421              		.loc 1 135 0
 422 00c6 4FF42F70 		mov	r0, #700
 423 00ca FFF7FEFF 		bl	CyDelay
 424              	.LVL53:
 136:main.c        ****             GirarD();   
 425              		.loc 1 136 0
 426 00ce FFF7FEFF 		bl	GirarD
 427              	.LVL54:
 137:main.c        ****             CyDelay(2000);
 428              		.loc 1 137 0
 429 00d2 4FF4FA60 		mov	r0, #2000
 430 00d6 FFF7FEFF 		bl	CyDelay
 431              	.LVL55:
ARM GAS  C:\Users\jdrd3\AppData\Local\Temp\ccvG37Rc.s 			page 11


 432 00da 04E0     		b	.L24
 433              	.L23:
 138:main.c        ****         }
 139:main.c        ****         else{
 140:main.c        ****           LED_Write(0);
 434              		.loc 1 140 0
 435 00dc 0020     		movs	r0, #0
 436 00de FFF7FEFF 		bl	LED_Write
 437              	.LVL56:
 141:main.c        ****           GirarD();
 438              		.loc 1 141 0
 439 00e2 FFF7FEFF 		bl	GirarD
 440              	.LVL57:
 441              	.L24:
 142:main.c        ****         }
 143:main.c        ****         //--------------------------------------------------  
 144:main.c        ****         time1=0;
 442              		.loc 1 144 0
 443 00e6 0022     		movs	r2, #0
 444 00e8 1A4B     		ldr	r3, .L30
 445 00ea 9A60     		str	r2, [r3, #8]
 145:main.c        ****         Slinea1_SetDriveMode(Slinea1_DM_STRONG);
 446              		.loc 1 145 0
 447 00ec 0C20     		movs	r0, #12
 448 00ee FFF7FEFF 		bl	Slinea1_SetDriveMode
 449              	.LVL58:
 146:main.c        ****         Slinea1_Write(1);
 450              		.loc 1 146 0
 451 00f2 0120     		movs	r0, #1
 452 00f4 FFF7FEFF 		bl	Slinea1_Write
 453              	.LVL59:
 147:main.c        ****         CyDelay(12u);
 454              		.loc 1 147 0
 455 00f8 0C20     		movs	r0, #12
 456 00fa FFF7FEFF 		bl	CyDelay
 457              	.LVL60:
 148:main.c        ****         Slinea1_SetDriveMode(Slinea1_DM_DIG_HIZ);
 458              		.loc 1 148 0
 459 00fe 0220     		movs	r0, #2
 460 0100 FFF7FEFF 		bl	Slinea1_SetDriveMode
 461              	.LVL61:
 149:main.c        ****         while(Slinea1_Read()){
 462              		.loc 1 149 0
 463 0104 03E0     		b	.L25
 464              	.L26:
 150:main.c        ****            time1=time1+1;
 465              		.loc 1 150 0
 466 0106 134A     		ldr	r2, .L30
 467 0108 9368     		ldr	r3, [r2, #8]
 468 010a 0133     		adds	r3, r3, #1
 469 010c 9360     		str	r3, [r2, #8]
 470              	.L25:
 149:main.c        ****         while(Slinea1_Read()){
 471              		.loc 1 149 0
 472 010e FFF7FEFF 		bl	Slinea1_Read
 473              	.LVL62:
 474 0112 0028     		cmp	r0, #0
ARM GAS  C:\Users\jdrd3\AppData\Local\Temp\ccvG37Rc.s 			page 12


 475 0114 F7D1     		bne	.L26
 151:main.c        ****         }
 152:main.c        ****             LED1_Write(0);
 476              		.loc 1 152 0
 477 0116 FFF7FEFF 		bl	LED1_Write
 478              	.LVL63:
 153:main.c        ****         if(time1<2500){
 479              		.loc 1 153 0
 480 011a 0E4B     		ldr	r3, .L30
 481 011c 9A68     		ldr	r2, [r3, #8]
 482 011e 40F6C313 		movw	r3, #2499
 483 0122 9A42     		cmp	r2, r3
 484 0124 0FDC     		bgt	.L27
 154:main.c        ****             LED1_Write(1);
 485              		.loc 1 154 0
 486 0126 0120     		movs	r0, #1
 487 0128 FFF7FEFF 		bl	LED1_Write
 488              	.LVL64:
 155:main.c        ****             Retroceder(); // BLANCO
 489              		.loc 1 155 0
 490 012c FFF7FEFF 		bl	Retroceder
 491              	.LVL65:
 156:main.c        ****             CyDelay(700);
 492              		.loc 1 156 0
 493 0130 4FF42F70 		mov	r0, #700
 494 0134 FFF7FEFF 		bl	CyDelay
 495              	.LVL66:
 157:main.c        ****             GirarI();   
 496              		.loc 1 157 0
 497 0138 FFF7FEFF 		bl	GirarI
 498              	.LVL67:
 158:main.c        ****             CyDelay(2000);
 499              		.loc 1 158 0
 500 013c 4FF4FA60 		mov	r0, #2000
 501 0140 FFF7FEFF 		bl	CyDelay
 502              	.LVL68:
 503 0144 68E7     		b	.L20
 504              	.L27:
 159:main.c        ****         }
 160:main.c        ****         else{
 161:main.c        ****           LED1_Write(0);
 505              		.loc 1 161 0
 506 0146 0020     		movs	r0, #0
 507 0148 FFF7FEFF 		bl	LED1_Write
 508              	.LVL69:
 162:main.c        ****           GirarD(); 
 509              		.loc 1 162 0
 510 014c FFF7FEFF 		bl	GirarD
 511              	.LVL70:
 512 0150 62E7     		b	.L20
 513              	.L31:
 514 0152 00BF     		.align	2
 515              	.L30:
 516 0154 00000000 		.word	.LANCHOR0
 517 0158 00004D40 		.word	1078788096
 518 015c 00000000 		.word	.LANCHOR1
 519 0160 0000C841 		.word	1103626240
ARM GAS  C:\Users\jdrd3\AppData\Local\Temp\ccvG37Rc.s 			page 13


 520              		.cfi_endproc
 521              	.LFE70:
 522              		.size	main, .-main
 523              		.global	Distancia
 524              		.global	time1
 525              		.global	time
 526              		.global	Contador
 527              		.data
 528              		.align	2
 529              		.set	.LANCHOR1,. + 0
 530              		.type	Distancia, %object
 531              		.size	Distancia, 4
 532              	Distancia:
 533 0000 0000C842 		.word	1120403456
 534              		.bss
 535              		.align	2
 536              		.set	.LANCHOR0,. + 0
 537              		.type	Contador, %object
 538              		.size	Contador, 4
 539              	Contador:
 540 0000 00000000 		.space	4
 541              		.type	time, %object
 542              		.size	time, 4
 543              	time:
 544 0004 00000000 		.space	4
 545              		.type	time1, %object
 546              		.size	time1, 4
 547              	time1:
 548 0008 00000000 		.space	4
 549              		.text
 550              	.Letext0:
 551              		.file 2 "c:\\program files (x86)\\cypress\\psoc creator\\4.2\\psoc creator\\import\\gnu\\arm\\5.4.
 552              		.file 3 "c:\\program files (x86)\\cypress\\psoc creator\\4.2\\psoc creator\\import\\gnu\\arm\\5.4.
 553              		.file 4 "Generated_Source\\PSoC5/cytypes.h"
 554              		.file 5 "Generated_Source\\PSoC5/core_cm3.h"
 555              		.file 6 "Generated_Source\\PSoC5/STBY.h"
 556              		.file 7 "Generated_Source\\PSoC5/PWM1.h"
 557              		.file 8 "Generated_Source\\PSoC5/PWM2.h"
 558              		.file 9 "Generated_Source\\PSoC5/CyLib.h"
 559              		.file 10 "Generated_Source\\PSoC5/S1.h"
 560              		.file 11 "Generated_Source\\PSoC5/S2.h"
 561              		.file 12 "Generated_Source\\PSoC5/Timer.h"
 562              		.file 13 "Generated_Source\\PSoC5/LED2.h"
 563              		.file 14 "Generated_Source\\PSoC5/Control.h"
 564              		.file 15 "Generated_Source\\PSoC5/Ekko.h"
 565              		.file 16 "Generated_Source\\PSoC5/Slinea.h"
 566              		.file 17 "Generated_Source\\PSoC5/LED.h"
 567              		.file 18 "Generated_Source\\PSoC5/Slinea1.h"
 568              		.file 19 "Generated_Source\\PSoC5/LED1.h"